target datalayout = "e-m:e-p270:32:32-p271:32:32-p272:64:64-i64:64-i128:128-f80:128-n8:16:32:64-S128"
target triple = "x86_64-pc-linux-gnu"

%struct.PJconsts = type { ptr, ptr, ptr, ptr, ptr, ptr, ptr, ptr, ptr, ptr, ptr, ptr, i32, ptr, ptr, ptr, ptr, ptr, ptr, ptr, ptr, double, double, double, double, double, double, double, double, double, double, double, double, double, double, double, double, double, double, double, double, double, double, i32, i32, i32, i32, i32, i32, i32, i32, i32, i32, i32, ptr, ptr, ptr, ptr, ptr, ptr, double, double, double, double, double, double, double, double, double, double, double, i32, [7 x double], i32, ptr, ptr, double, double, i32, [4 x i8], %"class.std::shared_ptr", i8, double, i8, %"class.std::__cxx11::basic_string", %"class.std::__cxx11::basic_string", %"class.std::__cxx11::basic_string", i8, %"class.std::vector", i32, %"class.std::vector.3", i32, i8, i8, i8, ptr }
%"class.std::shared_ptr" = type { %"class.std::__shared_ptr" }
%"class.std::__shared_ptr" = type { ptr, %"class.std::__shared_count" }
%"class.std::__shared_count" = type { ptr }
%"class.std::__cxx11::basic_string" = type { %"struct.std::__cxx11::basic_string<char>::_Alloc_hider", i64, %union.anon }
%"struct.std::__cxx11::basic_string<char>::_Alloc_hider" = type { ptr }
%union.anon = type { i64, [8 x i8] }
%"class.std::vector" = type { %"struct.std::_Vector_base" }
%"struct.std::_Vector_base" = type { %"struct.std::_Vector_base<osgeo::proj::operation::GridDescription, std::allocator<osgeo::proj::operation::GridDescription>>::_Vector_impl" }
%"struct.std::_Vector_base<osgeo::proj::operation::GridDescription, std::allocator<osgeo::proj::operation::GridDescription>>::_Vector_impl" = type { %"struct.std::_Vector_base<osgeo::proj::operation::GridDescription, std::allocator<osgeo::proj::operation::GridDescription>>::_Vector_impl_data" }
%"struct.std::_Vector_base<osgeo::proj::operation::GridDescription, std::allocator<osgeo::proj::operation::GridDescription>>::_Vector_impl_data" = type { ptr, ptr, ptr }
%"class.std::vector.3" = type { %"struct.std::_Vector_base.4" }
%"struct.std::_Vector_base.4" = type { %"struct.std::_Vector_base<PJCoordOperation, std::allocator<PJCoordOperation>>::_Vector_impl" }
%"struct.std::_Vector_base<PJCoordOperation, std::allocator<PJCoordOperation>>::_Vector_impl" = type { %"struct.std::_Vector_base<PJCoordOperation, std::allocator<PJCoordOperation>>::_Vector_impl_data" }
%"struct.std::_Vector_base<PJCoordOperation, std::allocator<PJCoordOperation>>::_Vector_impl_data" = type { ptr, ptr, ptr }
%union.PROJVALUE = type { double }
%"struct.(anonymous namespace)::pj_som_data" = type { double, double, double, double, double, double, double, double, double, double, double, double, double, double, double, double }

@.str.8 = private unnamed_addr constant [6 x i8] c"ipath\00", align 1
@.str.11 = private unnamed_addr constant [6 x i8] c"ilsat\00", align 1
@.str.12 = private unnamed_addr constant [55 x i8] c"Invalid value for lsat: lsat should be in [1, 5] range\00", align 1
@.str.13 = private unnamed_addr constant [56 x i8] c"Invalid value for path: path should be in [1, %d] range\00", align 1

; Function Attrs: mustprogress uwtable
define hidden noundef ptr @_Z33pj_projection_specific_setup_lsatP8PJconsts(ptr noundef %0) #0 {
  %2 = alloca ptr, align 8
  %3 = alloca ptr, align 8
  %4 = alloca i32, align 4
  %5 = alloca i32, align 4
  %6 = alloca ptr, align 8
  %7 = alloca i32, align 4
  %8 = alloca %union.PROJVALUE, align 8
  %9 = alloca %union.PROJVALUE, align 8
  %10 = alloca i32, align 4
  store ptr %0, ptr %3, align 8, !tbaa !3
  call void @llvm.lifetime.start.p0(i64 4, ptr %4) #9
  call void @llvm.lifetime.start.p0(i64 4, ptr %5) #9
  call void @llvm.lifetime.start.p0(i64 8, ptr %6) #9
  %11 = call noalias ptr @calloc(i64 noundef 1, i64 noundef 128) #10
  store ptr %11, ptr %6, align 8, !tbaa !41
  %12 = load ptr, ptr %6, align 8, !tbaa !41
  %13 = icmp eq ptr null, %12
  br i1 %13, label %14, label %17

14:                                               ; preds = %1
  %15 = load ptr, ptr %3, align 8, !tbaa !3
  %16 = call noundef ptr @_Z21pj_default_destructorP8PJconstsi(ptr noundef %15, i32 noundef 4096)
  store ptr %16, ptr %2, align 8
  store i32 1, ptr %7, align 4
  br label %96

17:                                               ; preds = %1
  %18 = load ptr, ptr %6, align 8, !tbaa !41
  %19 = load ptr, ptr %3, align 8, !tbaa !3
  %20 = getelementptr inbounds nuw %struct.PJconsts, ptr %19, i32 0, i32 11
  store ptr %18, ptr %20, align 8, !tbaa !43
  call void @llvm.lifetime.start.p0(i64 8, ptr %8) #9
  %21 = load ptr, ptr %3, align 8, !tbaa !3
  %22 = getelementptr inbounds nuw %struct.PJconsts, ptr %21, i32 0, i32 0
  %23 = load ptr, ptr %22, align 8, !tbaa !44
  %24 = load ptr, ptr %3, align 8, !tbaa !3
  %25 = getelementptr inbounds nuw %struct.PJconsts, ptr %24, i32 0, i32 3
  %26 = load ptr, ptr %25, align 8, !tbaa !45
  %27 = call i64 @_Z8pj_paramP6pj_ctxP8ARG_listPKc(ptr noundef %23, ptr noundef %26, ptr noundef @.str.11)
  %28 = getelementptr inbounds nuw %union.PROJVALUE, ptr %8, i32 0, i32 0
  store i64 %27, ptr %28, align 8
  %29 = load i32, ptr %8, align 8, !tbaa !46
  store i32 %29, ptr %4, align 4, !tbaa !52
  call void @llvm.lifetime.end.p0(i64 8, ptr %8) #9
  %30 = load i32, ptr %4, align 4, !tbaa !52
  %31 = icmp sle i32 %30, 0
  br i1 %31, label %35, label %32

32:                                               ; preds = %17
  %33 = load i32, ptr %4, align 4, !tbaa !52
  %34 = icmp sgt i32 %33, 5
  br i1 %34, label %35, label %39

35:                                               ; preds = %32, %17
  %36 = load ptr, ptr %3, align 8, !tbaa !3
  call void (ptr, ptr, ...) @_Z14proj_log_errorPK8PJconstsPKcz(ptr noundef %36, ptr noundef @.str.12)
  %37 = load ptr, ptr %3, align 8, !tbaa !3
  %38 = call noundef ptr @_Z21pj_default_destructorP8PJconstsi(ptr noundef %37, i32 noundef 1027)
  store ptr %38, ptr %2, align 8
  store i32 1, ptr %7, align 4
  br label %96

39:                                               ; preds = %32
  call void @llvm.lifetime.start.p0(i64 8, ptr %9) #9
  %40 = load ptr, ptr %3, align 8, !tbaa !3
  %41 = getelementptr inbounds nuw %struct.PJconsts, ptr %40, i32 0, i32 0
  %42 = load ptr, ptr %41, align 8, !tbaa !44
  %43 = load ptr, ptr %3, align 8, !tbaa !3
  %44 = getelementptr inbounds nuw %struct.PJconsts, ptr %43, i32 0, i32 3
  %45 = load ptr, ptr %44, align 8, !tbaa !45
  %46 = call i64 @_Z8pj_paramP6pj_ctxP8ARG_listPKc(ptr noundef %42, ptr noundef %45, ptr noundef @.str.8)
  %47 = getelementptr inbounds nuw %union.PROJVALUE, ptr %9, i32 0, i32 0
  store i64 %46, ptr %47, align 8
  %48 = load i32, ptr %9, align 8, !tbaa !46
  store i32 %48, ptr %5, align 4, !tbaa !52
  call void @llvm.lifetime.end.p0(i64 8, ptr %9) #9
  call void @llvm.lifetime.start.p0(i64 4, ptr %10) #9
  %49 = load i32, ptr %4, align 4, !tbaa !52
  %50 = icmp sle i32 %49, 3
  %51 = select i1 %50, i32 251, i32 233
  store i32 %51, ptr %10, align 4, !tbaa !52
  %52 = load i32, ptr %5, align 4, !tbaa !52
  %53 = icmp sle i32 %52, 0
  br i1 %53, label %58, label %54

54:                                               ; preds = %39
  %55 = load i32, ptr %5, align 4, !tbaa !52
  %56 = load i32, ptr %10, align 4, !tbaa !52
  %57 = icmp sgt i32 %55, %56
  br i1 %57, label %58, label %63

58:                                               ; preds = %54, %39
  %59 = load ptr, ptr %3, align 8, !tbaa !3
  %60 = load i32, ptr %10, align 4, !tbaa !52
  call void (ptr, ptr, ...) @_Z14proj_log_errorPK8PJconstsPKcz(ptr noundef %59, ptr noundef @.str.13, i32 noundef %60)
  %61 = load ptr, ptr %3, align 8, !tbaa !3
  %62 = call noundef ptr @_Z21pj_default_destructorP8PJconstsi(ptr noundef %61, i32 noundef 1027)
  store ptr %62, ptr %2, align 8
  store i32 1, ptr %7, align 4
  br label %95

63:                                               ; preds = %54
  %64 = load i32, ptr %4, align 4, !tbaa !52
  %65 = icmp sle i32 %64, 3
  br i1 %65, label %66, label %76

66:                                               ; preds = %63
  %67 = load i32, ptr %5, align 4, !tbaa !52
  %68 = sitofp i32 %67 to double
  %69 = call double @llvm.fmuladd.f64(double 0xBF99A22612A153BB, double %68, double 0x4001FE5F9D39DB0D)
  %70 = load ptr, ptr %3, align 8, !tbaa !3
  %71 = getelementptr inbounds nuw %struct.PJconsts, ptr %70, i32 0, i32 60
  store double %69, ptr %71, align 8, !tbaa !47
  %72 = load ptr, ptr %6, align 8, !tbaa !41
  %73 = getelementptr inbounds nuw %"struct.(anonymous namespace)::pj_som_data", ptr %72, i32 0, i32 9
  store double 0x4059D1156B36AFBF, ptr %73, align 8, !tbaa !50
  %74 = load ptr, ptr %6, align 8, !tbaa !41
  %75 = getelementptr inbounds nuw %"struct.(anonymous namespace)::pj_som_data", ptr %74, i32 0, i32 15
  store double 0x3FFBABF4F6AFB043, ptr %75, align 8, !tbaa !48
  br label %86

76:                                               ; preds = %63
  %77 = load i32, ptr %5, align 4, !tbaa !52
  %78 = sitofp i32 %77 to double
  %79 = call double @llvm.fmuladd.f64(double 0xBF9B9D1888886F13, double %78, double 0x40020DBE59F8A739)
  %80 = load ptr, ptr %3, align 8, !tbaa !3
  %81 = getelementptr inbounds nuw %struct.PJconsts, ptr %80, i32 0, i32 60
  store double %79, ptr %81, align 8, !tbaa !47
  %82 = load ptr, ptr %6, align 8, !tbaa !41
  %83 = getelementptr inbounds nuw %"struct.(anonymous namespace)::pj_som_data", ptr %82, i32 0, i32 9
  store double 0x4058B8956CE42EE9, ptr %83, align 8, !tbaa !50
  %84 = load ptr, ptr %6, align 8, !tbaa !41
  %85 = getelementptr inbounds nuw %"struct.(anonymous namespace)::pj_som_data", ptr %84, i32 0, i32 15
  store double 0x3FFB6C3061105C70, ptr %85, align 8, !tbaa !48
  br label %86

86:                                               ; preds = %76, %66
  %87 = load ptr, ptr %6, align 8, !tbaa !41
  %88 = getelementptr inbounds nuw %"struct.(anonymous namespace)::pj_som_data", ptr %87, i32 0, i32 9
  %89 = load double, ptr %88, align 8, !tbaa !50
  %90 = fdiv double %89, 1.440000e+03
  store double %90, ptr %88, align 8, !tbaa !50
  %91 = load ptr, ptr %6, align 8, !tbaa !41
  %92 = getelementptr inbounds nuw %"struct.(anonymous namespace)::pj_som_data", ptr %91, i32 0, i32 13
  store double 0x3FFA256A9FEC1623, ptr %92, align 8, !tbaa !51
  %93 = load ptr, ptr %3, align 8, !tbaa !3
  %94 = call noundef ptr @_ZL9som_setupP8PJconsts(ptr noundef %93)
  store ptr %94, ptr %2, align 8
  store i32 1, ptr %7, align 4
  br label %95

95:                                               ; preds = %86, %58
  call void @llvm.lifetime.end.p0(i64 4, ptr %10) #9
  br label %96

96:                                               ; preds = %95, %35, %14
  call void @llvm.lifetime.end.p0(i64 8, ptr %6) #9
  call void @llvm.lifetime.end.p0(i64 4, ptr %5) #9
  call void @llvm.lifetime.end.p0(i64 4, ptr %4) #9
  %97 = load ptr, ptr %2, align 8
  ret ptr %97
}