; Function Attrs: mustprogress uwtable
define hidden noundef ptr @_Z33pj_projection_specific_setup_lsatP8PJconsts(ptr noundef %0) local_unnamed_addr #0 {
  %2 = tail call noalias dereferenceable_or_null(128) ptr @calloc(i64 noundef 1, i64 noundef 128) #8
  %3 = icmp eq ptr %2, null
  br i1 %3, label %4, label %6

4:                                                ; preds = %1
  %5 = tail call noundef ptr @_Z21pj_default_destructorP8PJconstsi(ptr noundef %0, i32 noundef 4096)
  br label %35

6:                                                ; preds = %1
  %7 = getelementptr inbounds nuw i8, ptr %0, i64 88
  store ptr %2, ptr %7, align 8, !tbaa !40
  %8 = load ptr, ptr %0, align 8, !tbaa !41
  %9 = getelementptr inbounds nuw i8, ptr %0, i64 24
  %10 = load ptr, ptr %9, align 8, !tbaa !42
  %11 = tail call i64 @_Z8pj_paramP6pj_ctxP8ARG_listPKc(ptr noundef %8, ptr noundef %10, ptr noundef nonnull @.str.11)
  %.sroa.03.0.extract.trunc = trunc i64 %11 to i32
  %12 = add i32 %.sroa.03.0.extract.trunc, -6
  %or.cond = icmp ult i32 %12, -5
  br i1 %or.cond, label %13, label %15

13:                                               ; preds = %6
  tail call void (ptr, ptr, ...) @_Z14proj_log_errorPK8PJconstsPKcz(ptr noundef nonnull %0, ptr noundef nonnull @.str.12)
  %14 = tail call noundef ptr @_Z21pj_default_destructorP8PJconstsi(ptr noundef nonnull %0, i32 noundef 1027)
  br label %35

15:                                               ; preds = %6
  %16 = load ptr, ptr %0, align 8, !tbaa !41
  %17 = load ptr, ptr %9, align 8, !tbaa !42
  %18 = tail call i64 @_Z8pj_paramP6pj_ctxP8ARG_listPKc(ptr noundef %16, ptr noundef %17, ptr noundef nonnull @.str.8)
  %.sroa.0.0.extract.trunc = trunc i64 %18 to i32
  %19 = icmp samesign ult i32 %.sroa.03.0.extract.trunc, 4
  %20 = select i1 %19, i32 251, i32 233
  %21 = icmp slt i32 %.sroa.0.0.extract.trunc, 1
  %22 = icmp slt i32 %20, %.sroa.0.0.extract.trunc
  %or.cond35 = or i1 %21, %22
  br i1 %or.cond35, label %23, label %25

23:                                               ; preds = %15
  tail call void (ptr, ptr, ...) @_Z14proj_log_errorPK8PJconstsPKcz(ptr noundef nonnull %0, ptr noundef nonnull @.str.13, i32 noundef %20)
  %24 = tail call noundef ptr @_Z21pj_default_destructorP8PJconstsi(ptr noundef nonnull %0, i32 noundef 1027)
  br label %35

25:                                               ; preds = %15
  %26 = uitofp nneg i32 %.sroa.0.0.extract.trunc to double
  %27 = tail call double @llvm.fmuladd.f64(double %26, double 0xBF99A22612A153BB, double 0x4001FE5F9D39DB0D)
  %28 = tail call double @llvm.fmuladd.f64(double %26, double 0xBF9B9D1888886F13, double 0x40020DBE59F8A739)
  %.sink37 = select i1 %19, double %27, double %28
  %.sink = select i1 %19, double 0x3FFBABF4F6AFB043, double 0x3FFB6C3061105C70
  %29 = getelementptr inbounds nuw i8, ptr %0, i64 440
  store double %.sink37, ptr %29, align 8, !tbaa !43
  %30 = getelementptr inbounds nuw i8, ptr %2, i64 72
  %31 = getelementptr inbounds nuw i8, ptr %2, i64 120
  store double %.sink, ptr %31, align 8, !tbaa !44
  %32 = select i1 %19, double 0x3FB25BCAF6E84F77, double 0x3FB1945380A2437E
  store double %32, ptr %30, align 8, !tbaa !46
  %33 = getelementptr inbounds nuw i8, ptr %2, i64 104
  store double 0x3FFA256A9FEC1623, ptr %33, align 8, !tbaa !47
  %34 = tail call fastcc noundef ptr @_ZL9som_setupP8PJconsts(ptr noundef nonnull %0)
  br label %35

35:                                               ; preds = %23, %25, %13, %4
  %.0 = phi ptr [ %5, %4 ], [ %14, %13 ], [ %24, %23 ], [ %0, %25 ]
  ret ptr %.0
}